target datalayout = "e-m:e-p270:32:32-p271:32:32-p272:64:64-i64:64-i128:128-f80:128-n8:16:32:64-S128"
target triple = "x86_64-pc-linux-gnu"

%struct.Vec_Int_t_ = type { i32, i32, ptr }
%struct.timespec = type { i64, i64 }

@.str.31 = private unnamed_addr constant [81 x i8] c"Generating patterns: Conf = %d (%d). Tries = %d. Pats = %d. Sim = %d. SAT = %d.\0A\00", align 1
@.str.32 = private unnamed_addr constant [34 x i8] c"There is no satisfiable outputs.\0A\00", align 1
@.str.33 = private unnamed_addr constant [11 x i8] c"Sweep time\00", align 1
@.str.34 = private unnamed_addr constant [11 x i8] c"Total time\00", align 1
@.str.55 = private unnamed_addr constant [5 x i8] c"%s =\00", align 1
@.str.56 = private unnamed_addr constant [11 x i8] c"%9.2f sec\0A\00", align 1

; Function Attrs: inlinehint nounwind uwtable
define internal void @Vec_IntFreeP(ptr noundef %0) #2 {
  %2 = alloca ptr, align 8
  store ptr %0, ptr %2, align 8, !tbaa !99
  %3 = load ptr, ptr %2, align 8, !tbaa !99
  %4 = load ptr, ptr %3, align 8, !tbaa !35
  %5 = icmp eq ptr %4, null
  br i1 %5, label %6, label %7

6:                                                ; preds = %1
  br label %32

7:                                                ; preds = %1
  %8 = load ptr, ptr %2, align 8, !tbaa !99
  %9 = load ptr, ptr %8, align 8, !tbaa !35
  %10 = getelementptr inbounds nuw %struct.Vec_Int_t_, ptr %9, i32 0, i32 2
  %11 = load ptr, ptr %10, align 8, !tbaa !52
  %12 = icmp ne ptr %11, null
  br i1 %12, label %13, label %21

13:                                               ; preds = %7
  %14 = load ptr, ptr %2, align 8, !tbaa !99
  %15 = load ptr, ptr %14, align 8, !tbaa !35
  %16 = getelementptr inbounds nuw %struct.Vec_Int_t_, ptr %15, i32 0, i32 2
  %17 = load ptr, ptr %16, align 8, !tbaa !52
  call void @free(ptr noundef %17) #13
  %18 = load ptr, ptr %2, align 8, !tbaa !99
  %19 = load ptr, ptr %18, align 8, !tbaa !35
  %20 = getelementptr inbounds nuw %struct.Vec_Int_t_, ptr %19, i32 0, i32 2
  store ptr null, ptr %20, align 8, !tbaa !52
  br label %22

21:                                               ; preds = %7
  br label %22

22:                                               ; preds = %21, %13
  %23 = load ptr, ptr %2, align 8, !tbaa !99
  %24 = load ptr, ptr %23, align 8, !tbaa !35
  %25 = icmp ne ptr %24, null
  br i1 %25, label %26, label %30

26:                                               ; preds = %22
  %27 = load ptr, ptr %2, align 8, !tbaa !99
  %28 = load ptr, ptr %27, align 8, !tbaa !35
  call void @free(ptr noundef %28) #13
  %29 = load ptr, ptr %2, align 8, !tbaa !99
  store ptr null, ptr %29, align 8, !tbaa !35
  br label %31

30:                                               ; preds = %22
  br label %31

31:                                               ; preds = %30, %26
  br label %32

32:                                               ; preds = %31, %6
  ret void
}

; Function Attrs: inlinehint nounwind uwtable
define internal void @Abc_PrintTime(i32 noundef %0, ptr noundef %1, i64 noundef %2) #2 {
  %4 = alloca i32, align 4
  %5 = alloca ptr, align 8
  %6 = alloca i64, align 8
  store i32 %0, ptr %4, align 4, !tbaa !10
  store ptr %1, ptr %5, align 8, !tbaa !80
  store i64 %2, ptr %6, align 8, !tbaa !62
  %7 = load ptr, ptr %5, align 8, !tbaa !80
  call void (i32, ptr, ...) @Abc_Print(i32 noundef 1, ptr noundef @.str.55, ptr noundef %7)
  %8 = load i64, ptr %6, align 8, !tbaa !62
  %9 = sitofp i64 %8 to double
  %10 = fmul double 1.000000e+00, %9
  %11 = fdiv double %10, 1.000000e+06
  call void (i32, ptr, ...) @Abc_Print(i32 noundef 1, ptr noundef @.str.56, double noundef %11)
  ret void
}

; Function Attrs: inlinehint nounwind uwtable
define internal i64 @Abc_Clock() #2 {
  %1 = alloca i64, align 8
  %2 = alloca %struct.timespec, align 8
  %3 = alloca i32, align 4
  %4 = alloca i64, align 8
  call void @llvm.lifetime.start.p0(i64 16, ptr %2) #13
  %5 = call i32 @clock_gettime(i32 noundef 1, ptr noundef %2) #13
  %6 = icmp slt i32 %5, 0
  br i1 %6, label %7, label %8

7:                                                ; preds = %0
  store i64 -1, ptr %1, align 8
  store i32 1, ptr %3, align 4
  br label %19

8:                                                ; preds = %0
  call void @llvm.lifetime.start.p0(i64 8, ptr %4) #13
  %9 = getelementptr inbounds nuw %struct.timespec, ptr %2, i32 0, i32 0
  %10 = load i64, ptr %9, align 8, !tbaa !188
  %11 = mul nsw i64 %10, 1000000
  store i64 %11, ptr %4, align 8, !tbaa !62
  %12 = getelementptr inbounds nuw %struct.timespec, ptr %2, i32 0, i32 1
  %13 = load i64, ptr %12, align 8, !tbaa !190
  %14 = mul nsw i64 %13, 1000000
  %15 = sdiv i64 %14, 1000000000
  %16 = load i64, ptr %4, align 8, !tbaa !62
  %17 = add nsw i64 %16, %15
  store i64 %17, ptr %4, align 8, !tbaa !62
  %18 = load i64, ptr %4, align 8, !tbaa !62
  store i64 %18, ptr %1, align 8
  store i32 1, ptr %3, align 4
  call void @llvm.lifetime.end.p0(i64 8, ptr %4) #13
  br label %19

19:                                               ; preds = %8, %7
  call void @llvm.lifetime.end.p0(i64 16, ptr %2) #13
  %20 = load i64, ptr %1, align 8
  ret i64 %20
}

; Function Attrs: nounwind uwtable
define ptr @Min_ManCollect(ptr noundef %0, i32 noundef %1, i32 noundef %2, i32 noundef %3, i32 noundef %4, i32 noundef %5, i32 noundef %6, i32 noundef %7, i32 noundef %8) #0 {
  %10 = alloca ptr, align 8
  %11 = alloca i32, align 4
  %12 = alloca i32, align 4
  %13 = alloca i32, align 4
  %14 = alloca i32, align 4
  %15 = alloca i32, align 4
  %16 = alloca i32, align 4
  %17 = alloca i32, align 4
  %18 = alloca i32, align 4
  %19 = alloca i64, align 8
  %20 = alloca ptr, align 8
  %21 = alloca i64, align 8
  %22 = alloca i32, align 4
  %23 = alloca ptr, align 8
  %24 = alloca ptr, align 8
  store ptr %0, ptr %10, align 8, !tbaa !8
  store i32 %1, ptr %11, align 4, !tbaa !10
  store i32 %2, ptr %12, align 4, !tbaa !10
  store i32 %3, ptr %13, align 4, !tbaa !10
  store i32 %4, ptr %14, align 4, !tbaa !10
  store i32 %5, ptr %15, align 4, !tbaa !10
  store i32 %6, ptr %16, align 4, !tbaa !10
  store i32 %7, ptr %17, align 4, !tbaa !10
  store i32 %8, ptr %18, align 4, !tbaa !10
  call void @llvm.lifetime.start.p0(i64 8, ptr %19) #13
  %25 = call i64 @Abc_Clock()
  store i64 %25, ptr %19, align 8, !tbaa !62
  call void @llvm.lifetime.start.p0(i64 8, ptr %20) #13
  %26 = load ptr, ptr %10, align 8, !tbaa !8
  %27 = load i32, ptr %11, align 4, !tbaa !10
  %28 = load i32, ptr %12, align 4, !tbaa !10
  %29 = call ptr @Cec4_ManSimulateTest4(ptr noundef %26, i32 noundef %27, i32 noundef %28, i32 noundef 0)
  store ptr %29, ptr %20, align 8, !tbaa !8
  call void @llvm.lifetime.start.p0(i64 8, ptr %21) #13
  %30 = call i64 @Abc_Clock()
  %31 = load i64, ptr %19, align 8, !tbaa !62
  %32 = sub nsw i64 %30, %31
  store i64 %32, ptr %21, align 8, !tbaa !62
  call void @llvm.lifetime.start.p0(i64 4, ptr %22) #13
  %33 = load i32, ptr %17, align 4, !tbaa !10
  %34 = icmp ne i32 %33, 0
  br i1 %34, label %35, label %43

35:                                               ; preds = %9
  %36 = load i32, ptr %11, align 4, !tbaa !10
  %37 = load i32, ptr %12, align 4, !tbaa !10
  %38 = load i32, ptr %13, align 4, !tbaa !10
  %39 = load i32, ptr %14, align 4, !tbaa !10
  %40 = load i32, ptr %15, align 4, !tbaa !10
  %41 = load i32, ptr %16, align 4, !tbaa !10
  %42 = call i32 (ptr, ...) @printf(ptr noundef @.str.31, i32 noundef %36, i32 noundef %37, i32 noundef %38, i32 noundef %39, i32 noundef %40, i32 noundef %41)
  br label %44

43:                                               ; preds = %9
  br label %44

44:                                               ; preds = %43, %35
  %45 = phi i32 [ %42, %35 ], [ 0, %43 ]
  store i32 %45, ptr %22, align 4, !tbaa !10
  call void @llvm.lifetime.start.p0(i64 8, ptr %23) #13
  %46 = load ptr, ptr %20, align 8, !tbaa !8
  %47 = call ptr @Min_ManGetUnsolved(ptr noundef %46)
  store ptr %47, ptr %23, align 8, !tbaa !35
  call void @llvm.lifetime.start.p0(i64 8, ptr %24) #13
  %48 = load ptr, ptr %23, align 8, !tbaa !35
  %49 = icmp ne ptr %48, null
  br i1 %49, label %50, label %60

50:                                               ; preds = %44
  %51 = load ptr, ptr %20, align 8, !tbaa !8
  %52 = load ptr, ptr %23, align 8, !tbaa !35
  %53 = load i32, ptr %13, align 4, !tbaa !10
  %54 = load i32, ptr %14, align 4, !tbaa !10
  %55 = load i32, ptr %15, align 4, !tbaa !10
  %56 = load i32, ptr %16, align 4, !tbaa !10
  %57 = load i32, ptr %17, align 4, !tbaa !10
  %58 = load i32, ptr %18, align 4, !tbaa !10
  %59 = call ptr @Gia_ManCollectSims(ptr noundef %51, i32 noundef 0, ptr noundef %52, i32 noundef %53, i32 noundef %54, i32 noundef %55, i32 noundef %56, i32 noundef %57, i32 noundef %58)
  br label %61

60:                                               ; preds = %44
  br label %61

61:                                               ; preds = %60, %50
  %62 = phi ptr [ %59, %50 ], [ null, %60 ]
  store ptr %62, ptr %24, align 8, !tbaa !133
  %63 = load ptr, ptr %23, align 8, !tbaa !35
  %64 = icmp eq ptr %63, null
  br i1 %64, label %65, label %67

65:                                               ; preds = %61
  %66 = call i32 (ptr, ...) @printf(ptr noundef @.str.32)
  br label %67

67:                                               ; preds = %65, %61
  %68 = load i32, ptr %17, align 4, !tbaa !10
  %69 = icmp ne i32 %68, 0
  br i1 %69, label %70, label %72

70:                                               ; preds = %67
  %71 = load i64, ptr %21, align 8, !tbaa !62
  call void @Abc_PrintTime(i32 noundef 1, ptr noundef @.str.33, i64 noundef %71)
  br label %72

72:                                               ; preds = %70, %67
  %73 = load i32, ptr %17, align 4, !tbaa !10
  %74 = icmp ne i32 %73, 0
  br i1 %74, label %75, label %79

75:                                               ; preds = %72
  %76 = call i64 @Abc_Clock()
  %77 = load i64, ptr %19, align 8, !tbaa !62
  %78 = sub nsw i64 %76, %77
  call void @Abc_PrintTime(i32 noundef 1, ptr noundef @.str.34, i64 noundef %78)
  br label %79

79:                                               ; preds = %75, %72
  call void @Vec_IntFreeP(ptr noundef %23)
  %80 = load ptr, ptr %20, align 8, !tbaa !8
  call void @Gia_ManStop(ptr noundef %80)
  store i32 0, ptr %22, align 4, !tbaa !10
  %81 = load ptr, ptr %24, align 8, !tbaa !133
  call void @llvm.lifetime.end.p0(i64 8, ptr %24) #13
  call void @llvm.lifetime.end.p0(i64 8, ptr %23) #13
  call void @llvm.lifetime.end.p0(i64 4, ptr %22) #13
  call void @llvm.lifetime.end.p0(i64 8, ptr %21) #13
  call void @llvm.lifetime.end.p0(i64 8, ptr %20) #13
  call void @llvm.lifetime.end.p0(i64 8, ptr %19) #13
  ret ptr %81
}