; Function Attrs: nounwind uwtable
define noalias noundef ptr @Min_ManCollect(ptr noundef %0, i32 noundef %1, i32 noundef %2, i32 noundef %3, i32 noundef %4, i32 noundef %5, i32 noundef %6, i32 noundef %7, i32 noundef %8) local_unnamed_addr #0 {
  %10 = alloca %struct.timespec, align 8
  %11 = alloca %struct.timespec, align 8
  %12 = alloca %struct.timespec, align 8
  call void @llvm.lifetime.start.p0(i64 16, ptr nonnull %12) #27
  %13 = call i32 @clock_gettime(i32 noundef 1, ptr noundef nonnull %12) #27
  %14 = icmp slt i32 %13, 0
  br i1 %14, label %Abc_Clock.exit, label %15

15:                                               ; preds = %9
  %16 = load i64, ptr %12, align 8, !tbaa !57
  %17 = mul nsw i64 %16, 1000000
  %18 = getelementptr inbounds nuw i8, ptr %12, i64 8
  %19 = load i64, ptr %18, align 8, !tbaa !59
  %20 = sdiv i64 %19, 1000
  %21 = add nsw i64 %20, %17
  br label %Abc_Clock.exit

Abc_Clock.exit:                                   ; preds = %9, %15
  %.0.i = phi i64 [ %21, %15 ], [ -1, %9 ]
  call void @llvm.lifetime.end.p0(i64 16, ptr nonnull %12) #27
  %22 = call ptr @Cec4_ManSimulateTest4(ptr noundef %0, i32 noundef %1, i32 noundef %2, i32 noundef 0) #27
  call void @llvm.lifetime.start.p0(i64 16, ptr nonnull %11) #27
  %23 = call i32 @clock_gettime(i32 noundef 1, ptr noundef nonnull %11) #27
  %24 = icmp slt i32 %23, 0
  br i1 %24, label %Abc_Clock.exit26, label %25

25:                                               ; preds = %Abc_Clock.exit
  %26 = load i64, ptr %11, align 8, !tbaa !57
  %27 = mul nsw i64 %26, 1000000
  %28 = getelementptr inbounds nuw i8, ptr %11, i64 8
  %29 = load i64, ptr %28, align 8, !tbaa !59
  %30 = sdiv i64 %29, 1000
  %31 = add nsw i64 %30, %27
  br label %Abc_Clock.exit26

Abc_Clock.exit26:                                 ; preds = %Abc_Clock.exit, %25
  %.0.i25 = phi i64 [ %31, %25 ], [ -1, %Abc_Clock.exit ]
  call void @llvm.lifetime.end.p0(i64 16, ptr nonnull %11) #27
  %32 = sub nsw i64 %.0.i25, %.0.i
  %.not = icmp eq i32 %7, 0
  br i1 %.not, label %35, label %33

33:                                               ; preds = %Abc_Clock.exit26
  %34 = call i32 (ptr, ...) @printf(ptr noundef nonnull dereferenceable(1) @.str.31, i32 noundef %1, i32 noundef %2, i32 noundef %3, i32 noundef %4, i32 noundef %5, i32 noundef %6)
  br label %35

35:                                               ; preds = %Abc_Clock.exit26, %33
  %36 = call ptr @Min_ManGetUnsolved(ptr noundef %22)
  %.not24 = icmp eq ptr %36, null
  br i1 %.not24, label %39, label %37

37:                                               ; preds = %35
  %38 = call ptr @Gia_ManCollectSims(ptr noundef %22, i32 noundef 0, ptr noundef nonnull %36, i32 noundef %3, i32 noundef %4, i32 noundef %5, i32 noundef %6, i32 noundef %7, i32 noundef %8)
  br label %40

39:                                               ; preds = %35
  %puts = call i32 @puts(ptr nonnull dereferenceable(1) @str)
  br label %40

40:                                               ; preds = %37, %39
  %41 = phi ptr [ null, %39 ], [ %38, %37 ]
  br i1 %.not, label %.critedge, label %42

42:                                               ; preds = %40
  call void (i32, ptr, ...) @Abc_Print(i32 poison, ptr noundef nonnull @.str.55, ptr noundef nonnull @.str.33)
  %43 = sitofp i64 %32 to double
  %44 = fdiv double %43, 1.000000e+06
  call void (i32, ptr, ...) @Abc_Print(i32 poison, ptr noundef nonnull @.str.56, double noundef %44)
  call void @llvm.lifetime.start.p0(i64 16, ptr nonnull %10) #27
  %45 = call i32 @clock_gettime(i32 noundef 1, ptr noundef nonnull %10) #27
  %46 = icmp slt i32 %45, 0
  br i1 %46, label %Abc_Clock.exit28, label %47

47:                                               ; preds = %42
  %48 = load i64, ptr %10, align 8, !tbaa !57
  %49 = mul nsw i64 %48, 1000000
  %50 = getelementptr inbounds nuw i8, ptr %10, i64 8
  %51 = load i64, ptr %50, align 8, !tbaa !59
  %52 = sdiv i64 %51, 1000
  %53 = add nsw i64 %52, %49
  br label %Abc_Clock.exit28

Abc_Clock.exit28:                                 ; preds = %42, %47
  %.0.i27 = phi i64 [ %53, %47 ], [ -1, %42 ]
  call void @llvm.lifetime.end.p0(i64 16, ptr nonnull %10) #27
  %54 = sub nsw i64 %.0.i27, %.0.i
  call void (i32, ptr, ...) @Abc_Print(i32 poison, ptr noundef nonnull @.str.55, ptr noundef nonnull @.str.34)
  %55 = sitofp i64 %54 to double
  %56 = fdiv double %55, 1.000000e+06
  call void (i32, ptr, ...) @Abc_Print(i32 poison, ptr noundef nonnull @.str.56, double noundef %56)
  br label %.critedge

.critedge:                                        ; preds = %40, %Abc_Clock.exit28
  br i1 %.not24, label %Vec_IntFreeP.exit, label %57

57:                                               ; preds = %.critedge
  %58 = getelementptr inbounds nuw i8, ptr %36, i64 8
  %59 = load ptr, ptr %58, align 8, !tbaa !32
  %.not.i = icmp eq ptr %59, null
  br i1 %.not.i, label %60, label %.thread.i

.thread.i:                                        ; preds = %57
  call void @free(ptr noundef nonnull %59) #27
  br label %60

60:                                               ; preds = %.thread.i, %57
  call void @free(ptr noundef nonnull %36) #27
  br label %Vec_IntFreeP.exit

Vec_IntFreeP.exit:                                ; preds = %.critedge, %60
  call void @Gia_ManStop(ptr noundef %22) #27
  ret ptr %41
}